; Function Attrs: mustprogress uwtable
define void @_ZN5Ipopt19CGPenaltyLSAcceptor12StopWatchDogEv(ptr noundef nonnull align 8 captures(none) dereferenceable(408) initializes((288, 304)) %0) unnamed_addr #3 align 2 {
  %2 = getelementptr inbounds nuw i8, ptr %0, i64 312
  %3 = load double, ptr %2, align 8, !tbaa !93
  %4 = getelementptr inbounds nuw i8, ptr %0, i64 288
  store double %3, ptr %4, align 8, !tbaa !89
  %5 = getelementptr inbounds nuw i8, ptr %0, i64 320
  %6 = load double, ptr %5, align 8, !tbaa !94
  %7 = getelementptr inbounds nuw i8, ptr %0, i64 296
  store double %6, ptr %7, align 8, !tbaa !92
  %8 = getelementptr inbounds nuw i8, ptr %0, i64 32
  %9 = load ptr, ptr %8, align 8, !tbaa !24
  %10 = getelementptr inbounds nuw i8, ptr %9, i64 2192
  %11 = load ptr, ptr %10, align 8, !tbaa !70
  %12 = getelementptr inbounds nuw i8, ptr %0, i64 328
  %13 = getelementptr inbounds nuw i8, ptr %11, i64 16
  %14 = load ptr, ptr %12, align 8, !tbaa !10
  %.not.i.i.i.i = icmp eq ptr %14, null
  br i1 %.not.i.i.i.i, label %19, label %15

15:                                               ; preds = %1
  %16 = getelementptr inbounds nuw i8, ptr %14, i64 8
  %17 = load i32, ptr %16, align 8, !tbaa !3
  %18 = add nsw i32 %17, 1
  store i32 %18, ptr %16, align 8, !tbaa !3
  br label %19

19:                                               ; preds = %15, %1
  %20 = load ptr, ptr %13, align 8, !tbaa !10
  %.not.i.i.i.i.i = icmp eq ptr %20, null
  br i1 %.not.i.i.i.i.i, label %_ZN5Ipopt8SmartPtrIKNS_14IteratesVectorEEaSERKS3_.exit.i, label %21

21:                                               ; preds = %19
  %22 = getelementptr inbounds nuw i8, ptr %20, i64 8
  %23 = load i32, ptr %22, align 8, !tbaa !3
  %24 = add nsw i32 %23, -1
  store i32 %24, ptr %22, align 8, !tbaa !3
  %25 = icmp eq i32 %24, 0
  br i1 %25, label %26, label %_ZN5Ipopt8SmartPtrIKNS_14IteratesVectorEEaSERKS3_.exit.i

26:                                               ; preds = %21
  %27 = load ptr, ptr %20, align 8, !tbaa !8
  %28 = getelementptr inbounds nuw i8, ptr %27, i64 8
  %29 = load ptr, ptr %28, align 8
  tail call void %29(ptr noundef nonnull align 8 dereferenceable(280) %20) #25
  br label %_ZN5Ipopt8SmartPtrIKNS_14IteratesVectorEEaSERKS3_.exit.i

_ZN5Ipopt8SmartPtrIKNS_14IteratesVectorEEaSERKS3_.exit.i: ; preds = %26, %21, %19
  store ptr %14, ptr %13, align 8, !tbaa !10
  %30 = load ptr, ptr %12, align 8, !tbaa !10
  %.not.i.i.i3.i = icmp eq ptr %30, null
  br i1 %.not.i.i.i3.i, label %_ZN5Ipopt8SmartPtrIKNS_14IteratesVectorEEaSEPS2_.exit, label %31

31:                                               ; preds = %_ZN5Ipopt8SmartPtrIKNS_14IteratesVectorEEaSERKS3_.exit.i
  %32 = getelementptr inbounds nuw i8, ptr %30, i64 8
  %33 = load i32, ptr %32, align 8, !tbaa !3
  %34 = add nsw i32 %33, -1
  store i32 %34, ptr %32, align 8, !tbaa !3
  %35 = icmp eq i32 %34, 0
  br i1 %35, label %36, label %_ZN5Ipopt8SmartPtrIKNS_14IteratesVectorEEaSEPS2_.exit

36:                                               ; preds = %31
  %37 = load ptr, ptr %30, align 8, !tbaa !8
  %38 = getelementptr inbounds nuw i8, ptr %37, i64 8
  %39 = load ptr, ptr %38, align 8
  tail call void %39(ptr noundef nonnull align 8 dereferenceable(280) %30) #25
  br label %_ZN5Ipopt8SmartPtrIKNS_14IteratesVectorEEaSEPS2_.exit

_ZN5Ipopt8SmartPtrIKNS_14IteratesVectorEEaSEPS2_.exit: ; preds = %36, %31, %_ZN5Ipopt8SmartPtrIKNS_14IteratesVectorEEaSERKS3_.exit.i
  store ptr null, ptr %12, align 8, !tbaa !10
  ret void
}